target datalayout = "e-m:e-p270:32:32-p271:32:32-p272:64:64-i64:64-i128:128-f80:128-n8:16:32:64-S128"
target triple = "x86_64-pc-linux-gnu"

@tv = internal global ptr null, align 8

; Function Attrs: nounwind uwtable
define internal void @ta_event_cb(ptr noundef %0) #0 {
  %2 = alloca ptr, align 8
  %3 = alloca ptr, align 8
  %4 = alloca i32, align 4
  %5 = alloca i32, align 4
  %6 = alloca i32, align 4
  %7 = alloca ptr, align 8
  %8 = alloca ptr, align 8
  store ptr %0, ptr %2, align 8, !tbaa !14
  call void @llvm.lifetime.start.p0(i64 8, ptr %3) #4
  %9 = call ptr @lv_indev_active()
  store ptr %9, ptr %3, align 8, !tbaa !8
  %10 = load ptr, ptr %3, align 8, !tbaa !8
  %11 = icmp eq ptr %10, null
  br i1 %11, label %12, label %13

12:                                               ; preds = %1
  store i32 1, ptr %4, align 4
  br label %53

13:                                               ; preds = %1
  call void @llvm.lifetime.start.p0(i64 4, ptr %5) #4
  %14 = load ptr, ptr %3, align 8, !tbaa !8
  %15 = call i32 @lv_indev_get_type(ptr noundef %14)
  store i32 %15, ptr %5, align 4, !tbaa !10
  call void @llvm.lifetime.start.p0(i64 4, ptr %6) #4
  %16 = load ptr, ptr %2, align 8, !tbaa !14
  %17 = call i32 @lv_event_get_code(ptr noundef %16)
  store i32 %17, ptr %6, align 4, !tbaa !10
  call void @llvm.lifetime.start.p0(i64 8, ptr %7) #4
  %18 = load ptr, ptr %2, align 8, !tbaa !14
  %19 = call ptr @lv_event_get_target(ptr noundef %18)
  store ptr %19, ptr %7, align 8, !tbaa !12
  call void @llvm.lifetime.start.p0(i64 8, ptr %8) #4
  %20 = load ptr, ptr %2, align 8, !tbaa !14
  %21 = call ptr @lv_event_get_user_data(ptr noundef %20)
  store ptr %21, ptr %8, align 8, !tbaa !12
  %22 = load i32, ptr %6, align 4, !tbaa !10
  %23 = icmp eq i32 %22, 10
  br i1 %23, label %24, label %41

24:                                               ; preds = %13
  %25 = load i32, ptr %5, align 4, !tbaa !10
  %26 = icmp eq i32 %25, 4
  br i1 %26, label %27, label %41

27:                                               ; preds = %24
  %28 = load ptr, ptr %8, align 8, !tbaa !12
  %29 = load ptr, ptr %7, align 8, !tbaa !12
  call void @lv_keyboard_set_textarea(ptr noundef %28, ptr noundef %29)
  %30 = load ptr, ptr %8, align 8, !tbaa !12
  call void @lv_obj_remove_flag(ptr noundef %30, i32 noundef 1)
  %31 = load ptr, ptr %8, align 8, !tbaa !12
  call void @lv_group_focus_obj(ptr noundef %31)
  %32 = load ptr, ptr %8, align 8, !tbaa !12
  %33 = call ptr @lv_obj_get_group(ptr noundef %32)
  %34 = load ptr, ptr %8, align 8, !tbaa !12
  %35 = icmp ne ptr %34, null
  call void @lv_group_set_editing(ptr noundef %33, i1 noundef zeroext %35)
  %36 = load ptr, ptr @tv, align 8, !tbaa !12
  %37 = call ptr @lv_display_get_default()
  %38 = call i32 @lv_display_get_vertical_resolution(ptr noundef %37)
  %39 = sdiv i32 %38, 2
  call void @lv_obj_set_height(ptr noundef %36, i32 noundef %39)
  %40 = load ptr, ptr %8, align 8, !tbaa !12
  call void @lv_obj_align(ptr noundef %40, i32 noundef 5, i32 noundef 0, i32 noundef 0)
  br label %41

41:                                               ; preds = %27, %24, %13
  %42 = load i32, ptr %6, align 4, !tbaa !10
  %43 = icmp eq i32 %42, 38
  br i1 %43, label %47, label %44

44:                                               ; preds = %41
  %45 = load i32, ptr %6, align 4, !tbaa !10
  %46 = icmp eq i32 %45, 39
  br i1 %46, label %47, label %52

47:                                               ; preds = %44, %41
  %48 = load ptr, ptr %8, align 8, !tbaa !12
  call void @lv_obj_add_flag(ptr noundef %48, i32 noundef 1)
  %49 = load ptr, ptr @tv, align 8, !tbaa !12
  %50 = call ptr @lv_display_get_default()
  %51 = call i32 @lv_display_get_vertical_resolution(ptr noundef %50)
  call void @lv_obj_set_height(ptr noundef %49, i32 noundef %51)
  br label %52

52:                                               ; preds = %47, %44
  call void @llvm.lifetime.end.p0(i64 8, ptr %8) #4
  call void @llvm.lifetime.end.p0(i64 8, ptr %7) #4
  call void @llvm.lifetime.end.p0(i64 4, ptr %6) #4
  call void @llvm.lifetime.end.p0(i64 4, ptr %5) #4
  store i32 0, ptr %4, align 4
  br label %53

53:                                               ; preds = %52, %12
  call void @llvm.lifetime.end.p0(i64 8, ptr %3) #4
  %54 = load i32, ptr %4, align 4
  switch i32 %54, label %56 [
    i32 0, label %55
    i32 1, label %55
  ]

55:                                               ; preds = %53, %53
  ret void

56:                                               ; preds = %53
  unreachable
}