; Function Attrs: nounwind uwtable
define internal void @ta_event_cb(ptr noundef %0) #0 {
  %2 = tail call ptr @lv_indev_active() #2
  %3 = icmp eq ptr %2, null
  br i1 %3, label %23, label %4

4:                                                ; preds = %1
  %5 = tail call i32 @lv_indev_get_type(ptr noundef nonnull %2) #2
  %6 = tail call i32 @lv_event_get_code(ptr noundef %0) #2
  %7 = tail call ptr @lv_event_get_target(ptr noundef %0) #2
  %8 = tail call ptr @lv_event_get_user_data(ptr noundef %0) #2
  %9 = icmp eq i32 %6, 10
  %10 = icmp eq i32 %5, 4
  %or.cond = select i1 %9, i1 %10, i1 false
  br i1 %or.cond, label %.thread, label %17

.thread:                                          ; preds = %4
  tail call void @lv_keyboard_set_textarea(ptr noundef %8, ptr noundef %7) #2
  tail call void @lv_obj_remove_flag(ptr noundef %8, i32 noundef 1) #2
  tail call void @lv_group_focus_obj(ptr noundef %8) #2
  %11 = tail call ptr @lv_obj_get_group(ptr noundef %8) #2
  %12 = icmp ne ptr %8, null
  tail call void @lv_group_set_editing(ptr noundef %11, i1 noundef zeroext %12) #2
  %13 = load ptr, ptr @tv, align 8, !tbaa !8
  %14 = tail call ptr @lv_display_get_default() #2
  %15 = tail call i32 @lv_display_get_vertical_resolution(ptr noundef %14) #2
  %16 = sdiv i32 %15, 2
  tail call void @lv_obj_set_height(ptr noundef %13, i32 noundef %16) #2
  tail call void @lv_obj_align(ptr noundef %8, i32 noundef 5, i32 noundef 0, i32 noundef 0) #2
  br label %23

17:                                               ; preds = %4
  %18 = and i32 %6, -2
  %or.cond3 = icmp eq i32 %18, 38
  br i1 %or.cond3, label %19, label %23

19:                                               ; preds = %17
  tail call void @lv_obj_add_flag(ptr noundef %8, i32 noundef 1) #2
  %20 = load ptr, ptr @tv, align 8, !tbaa !8
  %21 = tail call ptr @lv_display_get_default() #2
  %22 = tail call i32 @lv_display_get_vertical_resolution(ptr noundef %21) #2
  tail call void @lv_obj_set_height(ptr noundef %20, i32 noundef %22) #2
  br label %23

23:                                               ; preds = %.thread, %19, %17, %1
  ret void
}